target datalayout = "e-m:e-p270:32:32-p271:32:32-p272:64:64-i64:64-i128:128-f80:128-n8:16:32:64-S128"
target triple = "x86_64-pc-linux-gnu"

%struct.llama_sampler = type { ptr, ptr }
%struct.llama_token_data = type { i32, float, float }
%struct.llama_token_data_array = type { ptr, i64, i64, i8 }
%struct.llama_sampler_top_n_sigma = type { float }

; Function Attrs: mustprogress uwtable
define internal void @_ZL31llama_sampler_top_n_sigma_applyP13llama_samplerP22llama_token_data_array(ptr noundef %0, ptr noundef %1) #0 {
  %3 = alloca ptr, align 8
  %4 = alloca ptr, align 8
  %5 = alloca ptr, align 8
  %6 = alloca float, align 4
  %7 = alloca float, align 4
  %8 = alloca i64, align 8
  %9 = alloca float, align 4
  %10 = alloca float, align 4
  %11 = alloca i64, align 8
  %12 = alloca float, align 4
  %13 = alloca i64, align 8
  store ptr %0, ptr %3, align 8, !tbaa !12
  store ptr %1, ptr %4, align 8, !tbaa !19
  call void @llvm.lifetime.start.p0(i64 8, ptr %5) #14
  %14 = load ptr, ptr %3, align 8, !tbaa !12
  %15 = getelementptr inbounds nuw %struct.llama_sampler, ptr %14, i32 0, i32 1
  %16 = load ptr, ptr %15, align 8, !tbaa !11
  store ptr %16, ptr %5, align 8, !tbaa !720
  call void @llvm.lifetime.start.p0(i64 4, ptr %6) #14
  %17 = load ptr, ptr %4, align 8, !tbaa !19
  %18 = getelementptr inbounds nuw %struct.llama_token_data_array, ptr %17, i32 0, i32 0
  %19 = load ptr, ptr %18, align 8, !tbaa !41
  %20 = getelementptr inbounds %struct.llama_token_data, ptr %19, i64 0
  %21 = getelementptr inbounds nuw %struct.llama_token_data, ptr %20, i32 0, i32 1
  %22 = load float, ptr %21, align 4, !tbaa !37
  store float %22, ptr %6, align 4, !tbaa !36
  call void @llvm.lifetime.start.p0(i64 4, ptr %7) #14
  store float 0.000000e+00, ptr %7, align 4, !tbaa !36
  call void @llvm.lifetime.start.p0(i64 8, ptr %8) #14
  store i64 0, ptr %8, align 8, !tbaa !51
  br label %23

23:                                               ; preds = %58, %2
  %24 = load i64, ptr %8, align 8, !tbaa !51
  %25 = load ptr, ptr %4, align 8, !tbaa !19
  %26 = getelementptr inbounds nuw %struct.llama_token_data_array, ptr %25, i32 0, i32 1
  %27 = load i64, ptr %26, align 8, !tbaa !46
  %28 = icmp ult i64 %24, %27
  br i1 %28, label %30, label %29

29:                                               ; preds = %23
  call void @llvm.lifetime.end.p0(i64 8, ptr %8) #14
  br label %61

30:                                               ; preds = %23
  %31 = load ptr, ptr %4, align 8, !tbaa !19
  %32 = getelementptr inbounds nuw %struct.llama_token_data_array, ptr %31, i32 0, i32 0
  %33 = load ptr, ptr %32, align 8, !tbaa !41
  %34 = load i64, ptr %8, align 8, !tbaa !51
  %35 = getelementptr inbounds nuw %struct.llama_token_data, ptr %33, i64 %34
  %36 = getelementptr inbounds nuw %struct.llama_token_data, ptr %35, i32 0, i32 1
  %37 = load float, ptr %36, align 4, !tbaa !37
  %38 = load float, ptr %6, align 4, !tbaa !36
  %39 = fcmp ogt float %37, %38
  br i1 %39, label %40, label %48

40:                                               ; preds = %30
  %41 = load ptr, ptr %4, align 8, !tbaa !19
  %42 = getelementptr inbounds nuw %struct.llama_token_data_array, ptr %41, i32 0, i32 0
  %43 = load ptr, ptr %42, align 8, !tbaa !41
  %44 = load i64, ptr %8, align 8, !tbaa !51
  %45 = getelementptr inbounds nuw %struct.llama_token_data, ptr %43, i64 %44
  %46 = getelementptr inbounds nuw %struct.llama_token_data, ptr %45, i32 0, i32 1
  %47 = load float, ptr %46, align 4, !tbaa !37
  store float %47, ptr %6, align 4, !tbaa !36
  br label %48

48:                                               ; preds = %40, %30
  %49 = load ptr, ptr %4, align 8, !tbaa !19
  %50 = getelementptr inbounds nuw %struct.llama_token_data_array, ptr %49, i32 0, i32 0
  %51 = load ptr, ptr %50, align 8, !tbaa !41
  %52 = load i64, ptr %8, align 8, !tbaa !51
  %53 = getelementptr inbounds nuw %struct.llama_token_data, ptr %51, i64 %52
  %54 = getelementptr inbounds nuw %struct.llama_token_data, ptr %53, i32 0, i32 1
  %55 = load float, ptr %54, align 4, !tbaa !37
  %56 = load float, ptr %7, align 4, !tbaa !36
  %57 = fadd float %56, %55
  store float %57, ptr %7, align 4, !tbaa !36
  br label %58

58:                                               ; preds = %48
  %59 = load i64, ptr %8, align 8, !tbaa !51
  %60 = add i64 %59, 1
  store i64 %60, ptr %8, align 8, !tbaa !51
  br label %23, !llvm.loop !722

61:                                               ; preds = %29
  call void @llvm.lifetime.start.p0(i64 4, ptr %9) #14
  %62 = load float, ptr %7, align 4, !tbaa !36
  %63 = load ptr, ptr %4, align 8, !tbaa !19
  %64 = getelementptr inbounds nuw %struct.llama_token_data_array, ptr %63, i32 0, i32 1
  %65 = load i64, ptr %64, align 8, !tbaa !46
  %66 = uitofp i64 %65 to float
  %67 = fdiv float %62, %66
  store float %67, ptr %9, align 4, !tbaa !36
  call void @llvm.lifetime.start.p0(i64 4, ptr %10) #14
  store float 0.000000e+00, ptr %10, align 4, !tbaa !36
  call void @llvm.lifetime.start.p0(i64 8, ptr %11) #14
  store i64 0, ptr %11, align 8, !tbaa !51
  br label %68

68:                                               ; preds = %91, %61
  %69 = load i64, ptr %11, align 8, !tbaa !51
  %70 = load ptr, ptr %4, align 8, !tbaa !19
  %71 = getelementptr inbounds nuw %struct.llama_token_data_array, ptr %70, i32 0, i32 1
  %72 = load i64, ptr %71, align 8, !tbaa !46
  %73 = icmp ult i64 %69, %72
  br i1 %73, label %75, label %74

74:                                               ; preds = %68
  call void @llvm.lifetime.end.p0(i64 8, ptr %11) #14
  br label %94

75:                                               ; preds = %68
  %76 = load ptr, ptr %4, align 8, !tbaa !19
  %77 = getelementptr inbounds nuw %struct.llama_token_data_array, ptr %76, i32 0, i32 0
  %78 = load ptr, ptr %77, align 8, !tbaa !41
  %79 = load i64, ptr %11, align 8, !tbaa !51
  %80 = getelementptr inbounds nuw %struct.llama_token_data, ptr %78, i64 %79
  %81 = getelementptr inbounds nuw %struct.llama_token_data, ptr %80, i32 0, i32 1
  %82 = load float, ptr %81, align 4, !tbaa !37
  %83 = load float, ptr %9, align 4, !tbaa !36
  %84 = fsub float %82, %83
  %85 = fpext float %84 to double
  %86 = call double @pow(double noundef %85, double noundef 2.000000e+00) #14, !tbaa !16
  %87 = load float, ptr %10, align 4, !tbaa !36
  %88 = fpext float %87 to double
  %89 = fadd double %88, %86
  %90 = fptrunc double %89 to float
  store float %90, ptr %10, align 4, !tbaa !36
  br label %91

91:                                               ; preds = %75
  %92 = load i64, ptr %11, align 8, !tbaa !51
  %93 = add i64 %92, 1
  store i64 %93, ptr %11, align 8, !tbaa !51
  br label %68, !llvm.loop !723

94:                                               ; preds = %74
  call void @llvm.lifetime.start.p0(i64 4, ptr %12) #14
  %95 = load float, ptr %10, align 4, !tbaa !36
  %96 = load ptr, ptr %4, align 8, !tbaa !19
  %97 = getelementptr inbounds nuw %struct.llama_token_data_array, ptr %96, i32 0, i32 1
  %98 = load i64, ptr %97, align 8, !tbaa !46
  %99 = uitofp i64 %98 to float
  %100 = fdiv float %95, %99
  %101 = fpext float %100 to double
  %102 = call double @sqrt(double noundef %101) #14, !tbaa !16
  %103 = fptrunc double %102 to float
  store float %103, ptr %12, align 4, !tbaa !36
  call void @llvm.lifetime.start.p0(i64 8, ptr %13) #14
  store i64 0, ptr %13, align 8, !tbaa !51
  br label %104

104:                                              ; preds = %135, %94
  %105 = load i64, ptr %13, align 8, !tbaa !51
  %106 = load ptr, ptr %4, align 8, !tbaa !19
  %107 = getelementptr inbounds nuw %struct.llama_token_data_array, ptr %106, i32 0, i32 1
  %108 = load i64, ptr %107, align 8, !tbaa !46
  %109 = icmp ult i64 %105, %108
  br i1 %109, label %111, label %110

110:                                              ; preds = %104
  call void @llvm.lifetime.end.p0(i64 8, ptr %13) #14
  br label %138

111:                                              ; preds = %104
  %112 = load ptr, ptr %4, align 8, !tbaa !19
  %113 = getelementptr inbounds nuw %struct.llama_token_data_array, ptr %112, i32 0, i32 0
  %114 = load ptr, ptr %113, align 8, !tbaa !41
  %115 = load i64, ptr %13, align 8, !tbaa !51
  %116 = getelementptr inbounds nuw %struct.llama_token_data, ptr %114, i64 %115
  %117 = getelementptr inbounds nuw %struct.llama_token_data, ptr %116, i32 0, i32 1
  %118 = load float, ptr %117, align 4, !tbaa !37
  %119 = load float, ptr %6, align 4, !tbaa !36
  %120 = load ptr, ptr %5, align 8, !tbaa !720
  %121 = getelementptr inbounds nuw %struct.llama_sampler_top_n_sigma, ptr %120, i32 0, i32 0
  %122 = load float, ptr %121, align 4, !tbaa !170
  %123 = load float, ptr %12, align 4, !tbaa !36
  %124 = fneg float %122
  %125 = call float @llvm.fmuladd.f32(float %124, float %123, float %119)
  %126 = fcmp olt float %118, %125
  br i1 %126, label %127, label %134

127:                                              ; preds = %111
  %128 = load ptr, ptr %4, align 8, !tbaa !19
  %129 = getelementptr inbounds nuw %struct.llama_token_data_array, ptr %128, i32 0, i32 0
  %130 = load ptr, ptr %129, align 8, !tbaa !41
  %131 = load i64, ptr %13, align 8, !tbaa !51
  %132 = getelementptr inbounds nuw %struct.llama_token_data, ptr %130, i64 %131
  %133 = getelementptr inbounds nuw %struct.llama_token_data, ptr %132, i32 0, i32 1
  store float 0xFFF0000000000000, ptr %133, align 4, !tbaa !37
  br label %134

134:                                              ; preds = %127, %111
  br label %135

135:                                              ; preds = %134
  %136 = load i64, ptr %13, align 8, !tbaa !51
  %137 = add i64 %136, 1
  store i64 %137, ptr %13, align 8, !tbaa !51
  br label %104, !llvm.loop !724

138:                                              ; preds = %110
  %139 = load ptr, ptr %4, align 8, !tbaa !19
  call void @_ZL26llama_sampler_softmax_implP22llama_token_data_array(ptr noundef %139)
  call void @llvm.lifetime.end.p0(i64 4, ptr %12) #14
  call void @llvm.lifetime.end.p0(i64 4, ptr %10) #14
  call void @llvm.lifetime.end.p0(i64 4, ptr %9) #14
  call void @llvm.lifetime.end.p0(i64 4, ptr %7) #14
  call void @llvm.lifetime.end.p0(i64 4, ptr %6) #14
  call void @llvm.lifetime.end.p0(i64 8, ptr %5) #14
  ret void
}