; Function Attrs: mustprogress uwtable
define internal void @_ZL31llama_sampler_top_n_sigma_applyP13llama_samplerP22llama_token_data_array(ptr noundef readonly captures(none) %0, ptr noundef captures(none) %1) #0 {
  %3 = getelementptr inbounds nuw i8, ptr %0, i64 8
  %4 = load ptr, ptr %3, align 8, !tbaa !9
  %5 = load ptr, ptr %1, align 8, !tbaa !17
  %6 = getelementptr inbounds nuw i8, ptr %5, i64 4
  %7 = load float, ptr %6, align 4, !tbaa !209
  %8 = getelementptr inbounds nuw i8, ptr %1, i64 8
  %9 = load i64, ptr %8, align 8, !tbaa !22
  %.not = icmp eq i64 %9, 0
  br i1 %.not, label %._crit_edge.thread, label %.lr.ph

._crit_edge.thread:                               ; preds = %2
  %10 = uitofp nneg i64 %9 to float
  br label %._crit_edge52

.lr.ph51.preheader:                               ; preds = %.lr.ph
  %11 = uitofp i64 %9 to float
  %12 = fdiv float %16, %11
  br label %.lr.ph51

.lr.ph:                                           ; preds = %2, %.lr.ph
  %.03445 = phi float [ %.1, %.lr.ph ], [ %7, %2 ]
  %.03744 = phi float [ %16, %.lr.ph ], [ 0.000000e+00, %2 ]
  %.03843 = phi i64 [ %17, %.lr.ph ], [ 0, %2 ]
  %13 = getelementptr inbounds nuw %struct.llama_token_data, ptr %5, i64 %.03843, i32 1
  %14 = load float, ptr %13, align 4, !tbaa !209
  %15 = fcmp ogt float %14, %.03445
  %.1 = select i1 %15, float %14, float %.03445
  %16 = fadd float %.03744, %14
  %17 = add nuw i64 %.03843, 1
  %exitcond.not = icmp eq i64 %17, %9
  br i1 %exitcond.not, label %.lr.ph51.preheader, label %.lr.ph, !llvm.loop !338

._crit_edge52:                                    ; preds = %.lr.ph51, %._crit_edge.thread
  %18 = phi float [ %10, %._crit_edge.thread ], [ %11, %.lr.ph51 ]
  %.034.lcssa65 = phi float [ %7, %._crit_edge.thread ], [ %.1, %.lr.ph51 ]
  %.036.lcssa = phi float [ 0.000000e+00, %._crit_edge.thread ], [ %31, %.lr.ph51 ]
  %19 = fdiv float %.036.lcssa, %18
  %sqrtf = tail call float @sqrtf(float noundef %19) #20
  %20 = load i64, ptr %8, align 8, !tbaa !22
  %.not59 = icmp eq i64 %20, 0
  br i1 %.not59, label %._crit_edge57, label %.lr.ph56

.lr.ph56:                                         ; preds = %._crit_edge52
  %21 = load ptr, ptr %1, align 8, !tbaa !17
  %22 = load float, ptr %4, align 4, !tbaa !125
  %23 = fneg float %22
  %24 = tail call float @llvm.fmuladd.f32(float %23, float %sqrtf, float %.034.lcssa65)
  br label %33

.lr.ph51:                                         ; preds = %.lr.ph51.preheader, %.lr.ph51
  %.03549 = phi i64 [ %32, %.lr.ph51 ], [ 0, %.lr.ph51.preheader ]
  %.03648 = phi float [ %31, %.lr.ph51 ], [ 0.000000e+00, %.lr.ph51.preheader ]
  %25 = getelementptr inbounds nuw %struct.llama_token_data, ptr %5, i64 %.03549, i32 1
  %26 = load float, ptr %25, align 4, !tbaa !209
  %27 = fsub float %26, %12
  %28 = fpext float %27 to double
  %square = fmul double %28, %28
  %29 = fpext float %.03648 to double
  %30 = fadd double %square, %29
  %31 = fptrunc double %30 to float
  %32 = add nuw i64 %.03549, 1
  %exitcond61.not = icmp eq i64 %32, %9
  br i1 %exitcond61.not, label %._crit_edge52, label %.lr.ph51, !llvm.loop !339

._crit_edge57:                                    ; preds = %38, %._crit_edge52
  tail call fastcc void @_ZL26llama_sampler_softmax_implP22llama_token_data_array(ptr noundef nonnull %1)
  ret void

33:                                               ; preds = %.lr.ph56, %38
  %.054 = phi i64 [ 0, %.lr.ph56 ], [ %39, %38 ]
  %34 = getelementptr inbounds nuw %struct.llama_token_data, ptr %21, i64 %.054, i32 1
  %35 = load float, ptr %34, align 4, !tbaa !209
  %36 = fcmp olt float %35, %24
  br i1 %36, label %37, label %38

37:                                               ; preds = %33
  store float 0xFFF0000000000000, ptr %34, align 4, !tbaa !209
  br label %38

38:                                               ; preds = %33, %37
  %39 = add nuw i64 %.054, 1
  %exitcond62.not = icmp eq i64 %39, %20
  br i1 %exitcond62.not, label %._crit_edge57, label %33, !llvm.loop !340
}